; Function Attrs: nounwind uwtable
define ptr @dt_camctl_camera_property_get_first_choice(ptr noundef readonly captures(none) %0, ptr noundef %1, ptr noundef %2) local_unnamed_addr #0 {
  %4 = alloca ptr, align 8
  call void @llvm.lifetime.start.p0(i64 8, ptr nonnull %4) #15
  store ptr null, ptr %4, align 8, !tbaa !103
  %.not = icmp eq ptr %1, null
  br i1 %.not, label %5, label %17

5:                                                ; preds = %3
  %6 = getelementptr inbounds nuw i8, ptr %0, i64 144
  %7 = load ptr, ptr %6, align 8, !tbaa !6
  %8 = icmp eq ptr %7, null
  br i1 %8, label %9, label %17

9:                                                ; preds = %5
  %10 = getelementptr inbounds nuw i8, ptr %0, i64 136
  %11 = load ptr, ptr %10, align 8, !tbaa !61
  %12 = icmp eq ptr %11, null
  br i1 %12, label %13, label %17

13:                                               ; preds = %9
  %14 = load i32, ptr getelementptr inbounds nuw (i8, ptr @darktable, i64 8), align 8, !tbaa !19
  %15 = and i32 %14, 32
  %.not19 = icmp eq i32 %15, 0
  br i1 %.not19, label %36, label %16

16:                                               ; preds = %13
  tail call void (ptr, ...) @dt_print_ext(ptr noundef nonnull @.str.33) #15
  br label %36

17:                                               ; preds = %9, %5, %3
  %.015 = phi ptr [ %1, %3 ], [ %11, %9 ], [ %7, %5 ]
  %18 = getelementptr inbounds nuw i8, ptr %.015, i64 32800
  %19 = tail call i32 @pthread_mutex_lock(ptr noundef nonnull %18) #15
  %20 = getelementptr inbounds nuw i8, ptr %.015, i64 32784
  %21 = load ptr, ptr %20, align 8, !tbaa !96
  %22 = getelementptr inbounds nuw i8, ptr %.015, i64 32936
  %23 = tail call i32 @gp_widget_get_child_by_name(ptr noundef %21, ptr noundef %2, ptr noundef nonnull %22) #15
  %24 = icmp eq i32 %23, 0
  br i1 %24, label %25, label %29

25:                                               ; preds = %17
  %26 = getelementptr inbounds nuw i8, ptr %.015, i64 32944
  store i32 0, ptr %26, align 8, !tbaa !205
  %27 = load ptr, ptr %22, align 8, !tbaa !206
  %28 = call i32 @gp_widget_get_choice(ptr noundef %27, i32 noundef 0, ptr noundef nonnull %4) #15
  br label %33

29:                                               ; preds = %17
  %30 = load i32, ptr getelementptr inbounds nuw (i8, ptr @darktable, i64 8), align 8, !tbaa !19
  %31 = and i32 %30, 32
  %.not20 = icmp eq i32 %31, 0
  br i1 %.not20, label %33, label %32

32:                                               ; preds = %29
  tail call void (ptr, ...) @dt_print_ext(ptr noundef nonnull @.str.34, ptr noundef %2) #15
  br label %33

33:                                               ; preds = %29, %32, %25
  %34 = call i32 @pthread_mutex_unlock(ptr noundef nonnull %18) #15
  %35 = load ptr, ptr %4, align 8, !tbaa !103
  br label %36

36:                                               ; preds = %13, %16, %33
  %.0 = phi ptr [ %35, %33 ], [ null, %16 ], [ null, %13 ]
  call void @llvm.lifetime.end.p0(i64 8, ptr nonnull %4) #15
  ret ptr %.0
}